; Function Attrs: null_pointer_is_valid sspstrong uwtable
define internal noundef zeroext i1 @dissect_bind_parameter(ptr noundef %0, ptr readnone captures(none) %1, ptr noundef %2, i32 noundef %3, i32 noundef %4, i16 noundef zeroext %5, ptr noundef readonly captures(none) %6, i32 noundef %7, i32 noundef %8, ptr readnone captures(none) %9) #0 {
  %11 = icmp eq i32 %4, 2
  br i1 %11, label %12, label %13

12:                                               ; preds = %10
  switch i16 %5, label %13 [
    i16 15679, label %check_bind.exit
    i16 63, label %check_bind.exit
    i16 61, label %check_bind.exit
  ]

13:                                               ; preds = %12, %10
  %14 = icmp eq i32 %4, 1
  %15 = icmp eq i16 %5, 58
  %or.cond8.i = and i1 %14, %15
  br label %check_bind.exit

check_bind.exit:                                  ; preds = %12, %12, %12, %13
  %.0.i = phi i1 [ true, %12 ], [ true, %12 ], [ true, %12 ], [ %or.cond8.i, %13 ]
  %16 = icmp ult i32 %7, 20
  %or.cond = and i1 %16, %.0.i
  br i1 %or.cond, label %17, label %30

17:                                               ; preds = %check_bind.exit
  %18 = tail call ptr @wmem_packet_scope()
  %19 = add i32 %8, 1
  %20 = sext i32 %19 to i64
  %21 = tail call noalias ptr @wmem_alloc(ptr noundef %18, i64 noundef %20) #11
  %22 = sext i32 %8 to i64
  %23 = icmp ne i32 %19, -1
  tail call void @llvm.assume(i1 %23)
  %24 = tail call ptr @__memcpy_chk(ptr noundef %21, ptr noundef readonly %6, i64 noundef range(i64 -2147483648, 4294967296) %22, i64 noundef %20) #10, !alias.scope !61
  %25 = getelementptr i8, ptr %21, i64 %22
  store i8 0, ptr %25, align 1
  %26 = tail call i64 @g_ascii_strtoull(ptr noundef %21, ptr noundef null, i32 noundef 10)
  %27 = trunc i64 %26 to i32
  %28 = load i32, ptr @hf_bind_parameter, align 4
  %29 = tail call ptr @proto_tree_add_uint(ptr noundef %2, i32 noundef %28, ptr noundef %0, i32 noundef %3, i32 noundef %8, i32 noundef %27)
  br label %30

30:                                               ; preds = %check_bind.exit, %17
  ret i1 %or.cond
}